; ModuleID = '57/1190.c'
source_filename = "57/1190.c"
target datalayout = "e-m:e-p270:32:32-p271:32:32-p272:64:64-i64:64-f80:128-n8:16:32:64-S128"
target triple = "x86_64-pc-linux-gnu"

%struct.m = type { [34 x i8] }

@.str = private unnamed_addr constant [3 x i8] c"%d\00", align 1
@.str.1 = private unnamed_addr constant [3 x i8] c"%s\00", align 1

; Function Attrs: noinline nounwind uwtable
define dso_local i32 @main() #0 {
  %1 = alloca i32, align 4
  %2 = alloca i32, align 4
  %3 = alloca i32, align 4
  %4 = alloca i32, align 4
  %5 = alloca [52 x %struct.m], align 16
  store i32 0, i32* %1, align 4
  %6 = call i32 (i8*, ...) @__isoc99_scanf(i8* getelementptr inbounds ([3 x i8], [3 x i8]* @.str, i64 0, i64 0), i32* %2)
  store i32 0, i32* %3, align 4
  br label %7

7:                                                ; preds = %17, %0
  %8 = load i32, i32* %3, align 4
  %9 = load i32, i32* %2, align 4
  %10 = icmp slt i32 %8, %9
  br i1 %10, label %11, label %20

11:                                               ; preds = %7
  %12 = load i32, i32* %3, align 4
  %13 = sext i32 %12 to i64
  %14 = getelementptr inbounds [52 x %struct.m], [52 x %struct.m]* %5, i64 0, i64 %13
  %15 = getelementptr inbounds %struct.m, %struct.m* %14, i32 0, i32 0
  %16 = call i32 (i8*, ...) @__isoc99_scanf(i8* getelementptr inbounds ([3 x i8], [3 x i8]* @.str.1, i64 0, i64 0), [34 x i8]* %15)
  br label %17

17:                                               ; preds = %11
  %18 = load i32, i32* %3, align 4
  %19 = add nsw i32 %18, 1
  store i32 %19, i32* %3, align 4
  br label %7

20:                                               ; preds = %7
  store i32 0, i32* %3, align 4
  br label %21

21:                                               ; preds = %75, %20
  %22 = load i32, i32* %3, align 4
  %23 = load i32, i32* %2, align 4
  %24 = icmp slt i32 %22, %23
  br i1 %24, label %25, label %78

25:                                               ; preds = %21
  %26 = load i32, i32* %3, align 4
  %27 = sext i32 %26 to i64
  %28 = getelementptr inbounds [52 x %struct.m], [52 x %struct.m]* %5, i64 0, i64 %27
  %29 = getelementptr inbounds %struct.m, %struct.m* %28, i32 0, i32 0
  %30 = getelementptr inbounds [34 x i8], [34 x i8]* %29, i64 0, i64 0
  %31 = call i64 @strlen(i8* %30) #3
  %32 = trunc i64 %31 to i32
  store i32 %32, i32* %4, align 4
  %33 = load i32, i32* %3, align 4
  %34 = sext i32 %33 to i64
  %35 = getelementptr inbounds [52 x %struct.m], [52 x %struct.m]* %5, i64 0, i64 %34
  %36 = getelementptr inbounds %struct.m, %struct.m* %35, i32 0, i32 0
  %37 = load i32, i32* %4, align 4
  %38 = sub nsw i32 %37, 1
  %39 = sext i32 %38 to i64
  %40 = getelementptr inbounds [34 x i8], [34 x i8]* %36, i64 0, i64 %39
  %41 = load i8, i8* %40, align 1
  %42 = sext i8 %41 to i32
  %43 = icmp eq i32 %42, 114
  br i1 %43, label %56, label %44

44:                                               ; preds = %25
  %45 = load i32, i32* %3, align 4
  %46 = sext i32 %45 to i64
  %47 = getelementptr inbounds [52 x %struct.m], [52 x %struct.m]* %5, i64 0, i64 %46
  %48 = getelementptr inbounds %struct.m, %struct.m* %47, i32 0, i32 0
  %49 = load i32, i32* %4, align 4
  %50 = sub nsw i32 %49, 1
  %51 = sext i32 %50 to i64
  %52 = getelementptr inbounds [34 x i8], [34 x i8]* %48, i64 0, i64 %51
  %53 = load i8, i8* %52, align 1
  %54 = sext i8 %53 to i32
  %55 = icmp eq i32 %54, 121
  br i1 %55, label %56, label %65

56:                                               ; preds = %44, %25
  %57 = load i32, i32* %3, align 4
  %58 = sext i32 %57 to i64
  %59 = getelementptr inbounds [52 x %struct.m], [52 x %struct.m]* %5, i64 0, i64 %58
  %60 = getelementptr inbounds %struct.m, %struct.m* %59, i32 0, i32 0
  %61 = load i32, i32* %4, align 4
  %62 = sub nsw i32 %61, 2
  %63 = sext i32 %62 to i64
  %64 = getelementptr inbounds [34 x i8], [34 x i8]* %60, i64 0, i64 %63
  store i8 0, i8* %64, align 1
  br label %74

65:                                               ; preds = %44
  %66 = load i32, i32* %3, align 4
  %67 = sext i32 %66 to i64
  %68 = getelementptr inbounds [52 x %struct.m], [52 x %struct.m]* %5, i64 0, i64 %67
  %69 = getelementptr inbounds %struct.m, %struct.m* %68, i32 0, i32 0
  %70 = load i32, i32* %4, align 4
  %71 = sub nsw i32 %70, 3
  %72 = sext i32 %71 to i64
  %73 = getelementptr inbounds [34 x i8], [34 x i8]* %69, i64 0, i64 %72
  store i8 0, i8* %73, align 1
  br label %74

74:                                               ; preds = %65, %56
  br label %75

75:                                               ; preds = %74
  %76 = load i32, i32* %3, align 4
  %77 = add nsw i32 %76, 1
  store i32 %77, i32* %3, align 4
  br label %21

78:                                               ; preds = %21
  store i32 0, i32* %3, align 4
  br label %79

79:                                               ; preds = %90, %78
  %80 = load i32, i32* %3, align 4
  %81 = load i32, i32* %2, align 4
  %82 = icmp slt i32 %80, %81
  br i1 %82, label %83, label %93

83:                                               ; preds = %79
  %84 = load i32, i32* %3, align 4
  %85 = sext i32 %84 to i64
  %86 = getelementptr inbounds [52 x %struct.m], [52 x %struct.m]* %5, i64 0, i64 %85
  %87 = getelementptr inbounds %struct.m, %struct.m* %86, i32 0, i32 0
  %88 = getelementptr inbounds [34 x i8], [34 x i8]* %87, i64 0, i64 0
  %89 = call i32 @puts(i8* %88)
  br label %90

90:                                               ; preds = %83
  %91 = load i32, i32* %3, align 4
  %92 = add nsw i32 %91, 1
  store i32 %92, i32* %3, align 4
  br label %79

93:                                               ; preds = %79
  ret i32 0
}

declare dso_local i32 @__isoc99_scanf(i8*, ...) #1

; Function Attrs: nounwind readonly
declare dso_local i64 @strlen(i8*) #2

declare dso_local i32 @puts(i8*) #1


!llvm.module.flags = !{!0}
!llvm.ident = !{!1}

!0 = !{i32 1, !"wchar_size", i32 4}
!1 = !{!"clang version 10.0.0-4ubuntu1 "}
